target datalayout = "e-m:e-p270:32:32-p271:32:32-p272:64:64-i64:64-i128:128-f80:128-n8:16:32:64-S128"
target triple = "x86_64-pc-linux-gnu"

%"class.grpc_core::XdsHealthStatus" = type { i32 }

@.str = private unnamed_addr constant [8 x i8] c"UNKNOWN\00", align 1
@.str.1 = private unnamed_addr constant [8 x i8] c"HEALTHY\00", align 1
@.str.2 = private unnamed_addr constant [9 x i8] c"DRAINING\00", align 1
@.str.3 = private unnamed_addr constant [10 x i8] c"<INVALID>\00", align 1

; Function Attrs: mustprogress nounwind uwtable
define noundef ptr @_ZNK9grpc_core15XdsHealthStatus8ToStringEv(ptr noundef nonnull align 4 dereferenceable(4) %0) #6 align 2 {
  %2 = alloca ptr, align 8
  %3 = alloca ptr, align 8
  store ptr %0, ptr %3, align 8, !tbaa !7
  %4 = load ptr, ptr %3, align 8
  %5 = getelementptr inbounds nuw %"class.grpc_core::XdsHealthStatus", ptr %4, i32 0, i32 0
  %6 = load i32, ptr %5, align 4, !tbaa !12
  switch i32 %6, label %10 [
    i32 0, label %7
    i32 1, label %8
    i32 2, label %9
  ]

7:                                                ; preds = %1
  store ptr @.str, ptr %2, align 8
  br label %11

8:                                                ; preds = %1
  store ptr @.str.1, ptr %2, align 8
  br label %11

9:                                                ; preds = %1
  store ptr @.str.2, ptr %2, align 8
  br label %11

10:                                               ; preds = %1
  store ptr @.str.3, ptr %2, align 8
  br label %11

11:                                               ; preds = %10, %9, %8, %7
  %12 = load ptr, ptr %2, align 8
  ret ptr %12
}